target datalayout = "e-m:e-p270:32:32-p271:32:32-p272:64:64-i64:64-i128:128-f80:128-n8:16:32:64-S128"
target triple = "x86_64-pc-linux-gnu"

%"class.net::QuicHeadersStream" = type { %"class.net::ReliableQuicStream.base", ptr, i32, i32, i8, i64, i64, i8, %"class.net::QuicTime", %"class.net::QuicTime", %"class.net::SpdyFramer", %"class.std::unique_ptr.69", %"class.net::QuicHeaderList" }
%"class.net::ReliableQuicStream.base" = type <{ ptr, %"class.std::__cxx11::list", i64, %"class.net::QuicStreamSequencer", i32, [4 x i8], ptr, i64, i64, i32, i32, i8, i8, i8, i8, i8, i8, i8, i8, i32, [4 x i8], %"class.net::QuicFlowController", ptr, i8 }>
%"class.std::__cxx11::list" = type { %"class.std::__cxx11::_List_base" }
%"class.std::__cxx11::_List_base" = type { %"struct.std::__cxx11::_List_base<net::ReliableQuicStream::PendingData, std::allocator<net::ReliableQuicStream::PendingData>>::_List_impl" }
%"struct.std::__cxx11::_List_base<net::ReliableQuicStream::PendingData, std::allocator<net::ReliableQuicStream::PendingData>>::_List_impl" = type { %"struct.std::__detail::_List_node_header" }
%"struct.std::__detail::_List_node_header" = type { %"struct.std::__detail::_List_node_base", i64 }
%"struct.std::__detail::_List_node_base" = type { ptr, ptr }
%"class.net::QuicStreamSequencer" = type <{ ptr, ptr, %"class.net::QuicStreamSequencerBuffer", i64, i8, [3 x i8], i32, i32, [4 x i8], ptr, i8, [7 x i8] }>
%"class.net::QuicStreamSequencerBuffer" = type { i64, i64, i64, %"class.std::__cxx11::list.0", i8, %"class.std::unique_ptr", i64, %"class.std::map" }
%"class.std::__cxx11::list.0" = type { %"class.std::__cxx11::_List_base.1" }
%"class.std::__cxx11::_List_base.1" = type { %"struct.std::__cxx11::_List_base<net::QuicStreamSequencerBuffer::Gap, std::allocator<net::QuicStreamSequencerBuffer::Gap>>::_List_impl" }
%"struct.std::__cxx11::_List_base<net::QuicStreamSequencerBuffer::Gap, std::allocator<net::QuicStreamSequencerBuffer::Gap>>::_List_impl" = type { %"struct.std::__detail::_List_node_header" }
%"class.std::unique_ptr" = type { %"struct.std::__uniq_ptr_data" }
%"struct.std::__uniq_ptr_data" = type { %"class.std::__uniq_ptr_impl" }
%"class.std::__uniq_ptr_impl" = type { %"class.std::tuple" }
%"class.std::tuple" = type { %"struct.std::_Tuple_impl" }
%"struct.std::_Tuple_impl" = type { %"struct.std::_Head_base.6" }
%"struct.std::_Head_base.6" = type { ptr }
%"class.std::map" = type { %"class.std::_Rb_tree" }
%"class.std::_Rb_tree" = type { %"struct.std::_Rb_tree<unsigned long, std::pair<const unsigned long, net::QuicStreamSequencerBuffer::FrameInfo>, std::_Select1st<std::pair<const unsigned long, net::QuicStreamSequencerBuffer::FrameInfo>>, std::less<unsigned long>>::_Rb_tree_impl" }
%"struct.std::_Rb_tree<unsigned long, std::pair<const unsigned long, net::QuicStreamSequencerBuffer::FrameInfo>, std::_Select1st<std::pair<const unsigned long, net::QuicStreamSequencerBuffer::FrameInfo>>, std::less<unsigned long>>::_Rb_tree_impl" = type { [8 x i8], %"struct.std::_Rb_tree_header" }
%"struct.std::_Rb_tree_header" = type { %"struct.std::_Rb_tree_node_base", i64 }
%"struct.std::_Rb_tree_node_base" = type { i32, ptr, ptr, ptr }
%"class.net::QuicFlowController" = type { ptr, i32, i32, i64, i64, i64, i64, i64, i64, i64, i8, i64, %"class.net::QuicTime" }
%"class.net::QuicTime" = type { i64 }
%"class.net::SpdyFramer" = type <{ ptr, i32, i32, i32, [4 x i8], i64, i64, i64, i64, i64, %"class.net::SpdyFramer::CharBuffer", i32, i32, i32, i32, %"struct.net::SpdyFramer::SpdySettingsScratch", %"class.std::unique_ptr.18", %"class.std::unique_ptr.26", %"class.std::unique_ptr.26", %"class.std::unique_ptr.34", %"class.std::unique_ptr.42", ptr, ptr, %"class.std::unique_ptr.50", ptr, %"class.std::__cxx11::basic_string", %"class.std::unique_ptr.61", i32, i8, i8, i8, i8, i8, i8, i8, [5 x i8] }>
%"class.net::SpdyFramer::CharBuffer" = type { %"class.std::unique_ptr.10", i64, i64 }
%"class.std::unique_ptr.10" = type { %"struct.std::__uniq_ptr_data.11" }
%"struct.std::__uniq_ptr_data.11" = type { %"class.std::__uniq_ptr_impl.12" }
%"class.std::__uniq_ptr_impl.12" = type { %"class.std::tuple.13" }
%"class.std::tuple.13" = type { %"struct.std::_Tuple_impl.14" }
%"struct.std::_Tuple_impl.14" = type { %"struct.std::_Head_base.17" }
%"struct.std::_Head_base.17" = type { ptr }
%"struct.net::SpdyFramer::SpdySettingsScratch" = type <{ %"class.net::SpdyFramer::CharBuffer", i32, [4 x i8] }>
%"class.std::unique_ptr.18" = type { %"struct.std::__uniq_ptr_data.19" }
%"struct.std::__uniq_ptr_data.19" = type { %"class.std::__uniq_ptr_impl.20" }
%"class.std::__uniq_ptr_impl.20" = type { %"class.std::tuple.21" }
%"class.std::tuple.21" = type { %"struct.std::_Tuple_impl.22" }
%"struct.std::_Tuple_impl.22" = type { %"struct.std::_Head_base.25" }
%"struct.std::_Head_base.25" = type { ptr }
%"class.std::unique_ptr.26" = type { %"struct.std::__uniq_ptr_data.27" }
%"struct.std::__uniq_ptr_data.27" = type { %"class.std::__uniq_ptr_impl.28" }
%"class.std::__uniq_ptr_impl.28" = type { %"class.std::tuple.29" }
%"class.std::tuple.29" = type { %"struct.std::_Tuple_impl.30" }
%"struct.std::_Tuple_impl.30" = type { %"struct.std::_Head_base.33" }
%"struct.std::_Head_base.33" = type { ptr }
%"class.std::unique_ptr.34" = type { %"struct.std::__uniq_ptr_data.35" }
%"struct.std::__uniq_ptr_data.35" = type { %"class.std::__uniq_ptr_impl.36" }
%"class.std::__uniq_ptr_impl.36" = type { %"class.std::tuple.37" }
%"class.std::tuple.37" = type { %"struct.std::_Tuple_impl.38" }
%"struct.std::_Tuple_impl.38" = type { %"struct.std::_Head_base.41" }
%"struct.std::_Head_base.41" = type { ptr }
%"class.std::unique_ptr.42" = type { %"struct.std::__uniq_ptr_data.43" }
%"struct.std::__uniq_ptr_data.43" = type { %"class.std::__uniq_ptr_impl.44" }
%"class.std::__uniq_ptr_impl.44" = type { %"class.std::tuple.45" }
%"class.std::tuple.45" = type { %"struct.std::_Tuple_impl.46" }
%"struct.std::_Tuple_impl.46" = type { %"struct.std::_Head_base.49" }
%"struct.std::_Head_base.49" = type { ptr }
%"class.std::unique_ptr.50" = type { %"struct.std::__uniq_ptr_data.51" }
%"struct.std::__uniq_ptr_data.51" = type { %"class.std::__uniq_ptr_impl.52" }
%"class.std::__uniq_ptr_impl.52" = type { %"class.std::tuple.53" }
%"class.std::tuple.53" = type { %"struct.std::_Tuple_impl.54" }
%"struct.std::_Tuple_impl.54" = type { %"struct.std::_Head_base.57" }
%"struct.std::_Head_base.57" = type { ptr }
%"class.std::__cxx11::basic_string" = type { %"struct.std::__cxx11::basic_string<char>::_Alloc_hider", i64, %union.anon }
%"struct.std::__cxx11::basic_string<char>::_Alloc_hider" = type { ptr }
%union.anon = type { i64, [8 x i8] }
%"class.std::unique_ptr.61" = type { %"struct.std::__uniq_ptr_data.62" }
%"struct.std::__uniq_ptr_data.62" = type { %"class.std::__uniq_ptr_impl.63" }
%"class.std::__uniq_ptr_impl.63" = type { %"class.std::tuple.64" }
%"class.std::tuple.64" = type { %"struct.std::_Tuple_impl.65" }
%"struct.std::_Tuple_impl.65" = type { %"struct.std::_Head_base.68" }
%"struct.std::_Head_base.68" = type { ptr }
%"class.std::unique_ptr.69" = type { %"struct.std::__uniq_ptr_data.70" }
%"struct.std::__uniq_ptr_data.70" = type { %"class.std::__uniq_ptr_impl.71" }
%"class.std::__uniq_ptr_impl.71" = type { %"class.std::tuple.72" }
%"class.std::tuple.72" = type { %"struct.std::_Tuple_impl.73" }
%"struct.std::_Tuple_impl.73" = type { %"struct.std::_Head_base.76" }
%"struct.std::_Head_base.76" = type { ptr }
%"class.net::QuicHeaderList" = type { %"class.net::SpdyHeadersHandlerInterface", %"class.std::deque", i64 }
%"class.net::SpdyHeadersHandlerInterface" = type { ptr }
%"class.std::deque" = type { %"class.std::_Deque_base" }
%"class.std::_Deque_base" = type { %"struct.std::_Deque_base<std::pair<std::__cxx11::basic_string<char>, std::__cxx11::basic_string<char>>, std::allocator<std::pair<std::__cxx11::basic_string<char>, std::__cxx11::basic_string<char>>>>::_Deque_impl" }
%"struct.std::_Deque_base<std::pair<std::__cxx11::basic_string<char>, std::__cxx11::basic_string<char>>, std::allocator<std::pair<std::__cxx11::basic_string<char>, std::__cxx11::basic_string<char>>>>::_Deque_impl" = type { %"struct.std::_Deque_base<std::pair<std::__cxx11::basic_string<char>, std::__cxx11::basic_string<char>>, std::allocator<std::pair<std::__cxx11::basic_string<char>, std::__cxx11::basic_string<char>>>>::_Deque_impl_data" }
%"struct.std::_Deque_base<std::pair<std::__cxx11::basic_string<char>, std::__cxx11::basic_string<char>>, std::allocator<std::pair<std::__cxx11::basic_string<char>, std::__cxx11::basic_string<char>>>>::_Deque_impl_data" = type { ptr, i64, %"struct.std::_Deque_iterator", %"struct.std::_Deque_iterator" }
%"struct.std::_Deque_iterator" = type { ptr, ptr, ptr, ptr }
%"class.net::QuicTime::Delta" = type { %"class.base::TimeDelta", i64 }
%"class.base::TimeDelta" = type { i64 }

; Function Attrs: mustprogress nounwind uwtable
define linkonce_odr void @_ZN4base9TimeDeltaC2Ev(ptr noundef nonnull align 8 dereferenceable(8) %0) unnamed_addr #0 comdat align 2 {
  %2 = alloca ptr, align 8
  store ptr %0, ptr %2, align 8, !tbaa !508
  %3 = load ptr, ptr %2, align 8
  %4 = getelementptr inbounds nuw %"class.base::TimeDelta", ptr %3, i32 0, i32 0
  store i64 0, ptr %4, align 8, !tbaa !510
  ret void
}

; Function Attrs: inlinehint mustprogress nounwind uwtable
define linkonce_odr void @_ZN3net8QuicTimeC2El(ptr noundef nonnull align 8 dereferenceable(8) %0, i64 noundef %1) unnamed_addr #9 comdat align 2 {
  %3 = alloca ptr, align 8
  %4 = alloca i64, align 8
  store ptr %0, ptr %3, align 8, !tbaa !298
  store i64 %1, ptr %4, align 8, !tbaa !250
  %5 = load ptr, ptr %3, align 8
  %6 = getelementptr inbounds nuw %"class.net::QuicTime", ptr %5, i32 0, i32 0
  %7 = load i64, ptr %4, align 8, !tbaa !250
  store i64 %7, ptr %6, align 8, !tbaa !311
  ret void
}

; Function Attrs: inlinehint mustprogress uwtable
define linkonce_odr void @_ZN3net8QuicTime5DeltaC2El(ptr noundef nonnull align 8 dereferenceable(16) %0, i64 noundef %1) unnamed_addr #4 comdat align 2 {
  %3 = alloca ptr, align 8
  %4 = alloca i64, align 8
  store ptr %0, ptr %3, align 8, !tbaa !505
  store i64 %1, ptr %4, align 8, !tbaa !250
  %5 = load ptr, ptr %3, align 8
  %6 = getelementptr inbounds nuw %"class.net::QuicTime::Delta", ptr %5, i32 0, i32 0
  call void @_ZN4base9TimeDeltaC2Ev(ptr noundef nonnull align 8 dereferenceable(8) %6)
  %7 = getelementptr inbounds nuw %"class.net::QuicTime::Delta", ptr %5, i32 0, i32 1
  %8 = load i64, ptr %4, align 8, !tbaa !250
  store i64 %8, ptr %7, align 8, !tbaa !507
  ret void
}

; Function Attrs: inlinehint mustprogress nounwind uwtable
define linkonce_odr noundef zeroext i1 @_ZN3netltENS_8QuicTimeES0_(i64 %0, i64 %1) #9 comdat {
  %3 = alloca %"class.net::QuicTime", align 8
  %4 = alloca %"class.net::QuicTime", align 8
  %5 = getelementptr inbounds nuw %"class.net::QuicTime", ptr %3, i32 0, i32 0
  store i64 %0, ptr %5, align 8
  %6 = getelementptr inbounds nuw %"class.net::QuicTime", ptr %4, i32 0, i32 0
  store i64 %1, ptr %6, align 8
  %7 = getelementptr inbounds nuw %"class.net::QuicTime", ptr %3, i32 0, i32 0
  %8 = load i64, ptr %7, align 8, !tbaa !311
  %9 = getelementptr inbounds nuw %"class.net::QuicTime", ptr %4, i32 0, i32 0
  %10 = load i64, ptr %9, align 8, !tbaa !311
  %11 = icmp slt i64 %8, %10
  ret i1 %11
}

; Function Attrs: inlinehint mustprogress uwtable
define linkonce_odr i64 @_ZN3net8QuicTime4ZeroEv() #4 comdat align 2 {
  %1 = alloca %"class.net::QuicTime", align 8
  call void @_ZN3net8QuicTimeC2El(ptr noundef nonnull align 8 dereferenceable(8) %1, i64 noundef 0)
  %2 = getelementptr inbounds nuw %"class.net::QuicTime", ptr %1, i32 0, i32 0
  %3 = load i64, ptr %2, align 8
  ret i64 %3
}

; Function Attrs: inlinehint mustprogress nounwind uwtable
define linkonce_odr noundef nonnull align 8 dereferenceable(8) ptr @_ZSt3maxIN3net8QuicTimeEERKT_S4_S4_(ptr noundef nonnull align 8 dereferenceable(8) %0, ptr noundef nonnull align 8 dereferenceable(8) %1) #9 comdat {
  %3 = alloca ptr, align 8
  %4 = alloca ptr, align 8
  %5 = alloca ptr, align 8
  %6 = alloca %"class.net::QuicTime", align 8
  %7 = alloca %"class.net::QuicTime", align 8
  store ptr %0, ptr %4, align 8, !tbaa !298
  store ptr %1, ptr %5, align 8, !tbaa !298
  %8 = load ptr, ptr %4, align 8, !tbaa !298
  call void @llvm.memcpy.p0.p0.i64(ptr align 8 %6, ptr align 8 %8, i64 8, i1 false), !tbaa.struct !296
  %9 = load ptr, ptr %5, align 8, !tbaa !298
  call void @llvm.memcpy.p0.p0.i64(ptr align 8 %7, ptr align 8 %9, i64 8, i1 false), !tbaa.struct !296
  %10 = getelementptr inbounds nuw %"class.net::QuicTime", ptr %6, i32 0, i32 0
  %11 = load i64, ptr %10, align 8
  %12 = getelementptr inbounds nuw %"class.net::QuicTime", ptr %7, i32 0, i32 0
  %13 = load i64, ptr %12, align 8
  %14 = call noundef zeroext i1 @_ZN3netltENS_8QuicTimeES0_(i64 %11, i64 %13)
  br i1 %14, label %15, label %17

15:                                               ; preds = %2
  %16 = load ptr, ptr %5, align 8, !tbaa !298
  store ptr %16, ptr %3, align 8
  br label %19

17:                                               ; preds = %2
  %18 = load ptr, ptr %4, align 8, !tbaa !298
  store ptr %18, ptr %3, align 8
  br label %19

19:                                               ; preds = %17, %15
  %20 = load ptr, ptr %3, align 8
  ret ptr %20
}

; Function Attrs: inlinehint mustprogress uwtable
define linkonce_odr { i64, i64 } @_ZN3netmiENS_8QuicTimeES0_(i64 %0, i64 %1) #4 comdat {
  %3 = alloca %"class.net::QuicTime::Delta", align 8
  %4 = alloca %"class.net::QuicTime", align 8
  %5 = alloca %"class.net::QuicTime", align 8
  %6 = getelementptr inbounds nuw %"class.net::QuicTime", ptr %4, i32 0, i32 0
  store i64 %0, ptr %6, align 8
  %7 = getelementptr inbounds nuw %"class.net::QuicTime", ptr %5, i32 0, i32 0
  store i64 %1, ptr %7, align 8
  %8 = getelementptr inbounds nuw %"class.net::QuicTime", ptr %4, i32 0, i32 0
  %9 = load i64, ptr %8, align 8, !tbaa !311
  %10 = getelementptr inbounds nuw %"class.net::QuicTime", ptr %5, i32 0, i32 0
  %11 = load i64, ptr %10, align 8, !tbaa !311
  %12 = sub nsw i64 %9, %11
  call void @_ZN3net8QuicTime5DeltaC2El(ptr noundef nonnull align 8 dereferenceable(16) %3, i64 noundef %12)
  %13 = load { i64, i64 }, ptr %3, align 8
  ret { i64, i64 } %13
}

; Function Attrs: inlinehint mustprogress uwtable
define linkonce_odr noundef zeroext i1 @_ZN3netgtENS_8QuicTimeES0_(i64 %0, i64 %1) #4 comdat {
  %3 = alloca %"class.net::QuicTime", align 8
  %4 = alloca %"class.net::QuicTime", align 8
  %5 = alloca %"class.net::QuicTime", align 8
  %6 = alloca %"class.net::QuicTime", align 8
  %7 = getelementptr inbounds nuw %"class.net::QuicTime", ptr %3, i32 0, i32 0
  store i64 %0, ptr %7, align 8
  %8 = getelementptr inbounds nuw %"class.net::QuicTime", ptr %4, i32 0, i32 0
  store i64 %1, ptr %8, align 8
  call void @llvm.memcpy.p0.p0.i64(ptr align 8 %5, ptr align 8 %4, i64 8, i1 false), !tbaa.struct !296
  call void @llvm.memcpy.p0.p0.i64(ptr align 8 %6, ptr align 8 %3, i64 8, i1 false), !tbaa.struct !296
  %9 = getelementptr inbounds nuw %"class.net::QuicTime", ptr %5, i32 0, i32 0
  %10 = load i64, ptr %9, align 8
  %11 = getelementptr inbounds nuw %"class.net::QuicTime", ptr %6, i32 0, i32 0
  %12 = load i64, ptr %11, align 8
  %13 = call noundef zeroext i1 @_ZN3netltENS_8QuicTimeES0_(i64 %10, i64 %12)
  ret i1 %13
}

; Function Attrs: mustprogress uwtable
define void @_ZN3net17QuicHeadersStream12OnHeaderListERKNS_14QuicHeaderListE(ptr noundef nonnull align 8 dereferenceable(816) %0, ptr noundef nonnull align 8 dereferenceable(96) %1) #2 align 2 {
  %3 = alloca ptr, align 8
  %4 = alloca ptr, align 8
  %5 = alloca %"class.net::QuicTime", align 8
  %6 = alloca %"class.net::QuicTime", align 8
  %7 = alloca %"class.net::QuicTime::Delta", align 8
  %8 = alloca %"class.net::QuicTime", align 8
  %9 = alloca %"class.net::QuicTime", align 8
  %10 = alloca %"class.net::QuicTime::Delta", align 8
  %11 = alloca %"class.net::QuicTime", align 8
  store ptr %0, ptr %3, align 8, !tbaa !10
  store ptr %1, ptr %4, align 8, !tbaa !312
  %12 = load ptr, ptr %3, align 8
  %13 = getelementptr inbounds nuw %"class.net::QuicHeadersStream", ptr %12, i32 0, i32 9
  call void @llvm.memcpy.p0.p0.i64(ptr align 8 %5, ptr align 8 %13, i64 8, i1 false), !tbaa.struct !296
  %14 = getelementptr inbounds nuw %"class.net::QuicHeadersStream", ptr %12, i32 0, i32 8
  call void @llvm.memcpy.p0.p0.i64(ptr align 8 %6, ptr align 8 %14, i64 8, i1 false), !tbaa.struct !296
  %15 = getelementptr inbounds nuw %"class.net::QuicTime", ptr %5, i32 0, i32 0
  %16 = load i64, ptr %15, align 8
  %17 = getelementptr inbounds nuw %"class.net::QuicTime", ptr %6, i32 0, i32 0
  %18 = load i64, ptr %17, align 8
  %19 = call noundef zeroext i1 @_ZN3netgtENS_8QuicTimeES0_(i64 %16, i64 %18)
  br i1 %19, label %20, label %41

20:                                               ; preds = %2
  call void @llvm.lifetime.start.p0(i64 16, ptr %7) #18
  %21 = getelementptr inbounds nuw %"class.net::QuicHeadersStream", ptr %12, i32 0, i32 9
  call void @llvm.memcpy.p0.p0.i64(ptr align 8 %8, ptr align 8 %21, i64 8, i1 false), !tbaa.struct !296
  %22 = getelementptr inbounds nuw %"class.net::QuicHeadersStream", ptr %12, i32 0, i32 8
  call void @llvm.memcpy.p0.p0.i64(ptr align 8 %9, ptr align 8 %22, i64 8, i1 false), !tbaa.struct !296
  %23 = getelementptr inbounds nuw %"class.net::QuicTime", ptr %8, i32 0, i32 0
  %24 = load i64, ptr %23, align 8
  %25 = getelementptr inbounds nuw %"class.net::QuicTime", ptr %9, i32 0, i32 0
  %26 = load i64, ptr %25, align 8
  %27 = call { i64, i64 } @_ZN3netmiENS_8QuicTimeES0_(i64 %24, i64 %26)
  %28 = getelementptr inbounds nuw { i64, i64 }, ptr %7, i32 0, i32 0
  %29 = extractvalue { i64, i64 } %27, 0
  store i64 %29, ptr %28, align 8
  %30 = getelementptr inbounds nuw { i64, i64 }, ptr %7, i32 0, i32 1
  %31 = extractvalue { i64, i64 } %27, 1
  store i64 %31, ptr %30, align 8
  %32 = getelementptr inbounds nuw %"class.net::QuicHeadersStream", ptr %12, i32 0, i32 1
  %33 = load ptr, ptr %32, align 8, !tbaa !14
  call void @llvm.memcpy.p0.p0.i64(ptr align 8 %10, ptr align 8 %7, i64 16, i1 false), !tbaa.struct !308
  %34 = getelementptr inbounds nuw { i64, i64 }, ptr %10, i32 0, i32 0
  %35 = load i64, ptr %34, align 8
  %36 = getelementptr inbounds nuw { i64, i64 }, ptr %10, i32 0, i32 1
  %37 = load i64, ptr %36, align 8
  %38 = load ptr, ptr %33, align 8, !tbaa !8
  %39 = getelementptr inbounds ptr, ptr %38, i64 49
  %40 = load ptr, ptr %39, align 8
  call void %40(ptr noundef nonnull align 8 dereferenceable(2057) %33, i64 %35, i64 %37)
  call void @llvm.lifetime.end.p0(i64 16, ptr %7) #18
  br label %41

41:                                               ; preds = %20, %2
  %42 = getelementptr inbounds nuw %"class.net::QuicHeadersStream", ptr %12, i32 0, i32 9
  %43 = getelementptr inbounds nuw %"class.net::QuicHeadersStream", ptr %12, i32 0, i32 8
  %44 = call noundef nonnull align 8 dereferenceable(8) ptr @_ZSt3maxIN3net8QuicTimeEERKT_S4_S4_(ptr noundef nonnull align 8 dereferenceable(8) %42, ptr noundef nonnull align 8 dereferenceable(8) %43)
  %45 = getelementptr inbounds nuw %"class.net::QuicHeadersStream", ptr %12, i32 0, i32 9
  call void @llvm.memcpy.p0.p0.i64(ptr align 8 %45, ptr align 8 %44, i64 8, i1 false), !tbaa.struct !296
  call void @llvm.lifetime.start.p0(i64 8, ptr %11) #18
  %46 = call i64 @_ZN3net8QuicTime4ZeroEv()
  %47 = getelementptr inbounds nuw %"class.net::QuicTime", ptr %11, i32 0, i32 0
  store i64 %46, ptr %47, align 8
  %48 = getelementptr inbounds nuw %"class.net::QuicHeadersStream", ptr %12, i32 0, i32 8
  call void @llvm.memcpy.p0.p0.i64(ptr align 8 %48, ptr align 8 %11, i64 8, i1 false), !tbaa.struct !296
  call void @llvm.lifetime.end.p0(i64 8, ptr %11) #18
  %49 = getelementptr inbounds nuw %"class.net::QuicHeadersStream", ptr %12, i32 0, i32 3
  %50 = load i32, ptr %49, align 4, !tbaa !135
  %51 = icmp eq i32 %50, 0
  br i1 %51, label %52, label %66

52:                                               ; preds = %41
  %53 = getelementptr inbounds nuw %"class.net::QuicHeadersStream", ptr %12, i32 0, i32 1
  %54 = load ptr, ptr %53, align 8, !tbaa !14
  %55 = getelementptr inbounds nuw %"class.net::QuicHeadersStream", ptr %12, i32 0, i32 2
  %56 = load i32, ptr %55, align 8, !tbaa !134
  %57 = getelementptr inbounds nuw %"class.net::QuicHeadersStream", ptr %12, i32 0, i32 4
  %58 = load i8, ptr %57, align 8, !tbaa !136, !range !209, !noundef !210
  %59 = trunc i8 %58 to i1
  %60 = getelementptr inbounds nuw %"class.net::QuicHeadersStream", ptr %12, i32 0, i32 5
  %61 = load i64, ptr %60, align 8, !tbaa !137
  %62 = load ptr, ptr %4, align 8, !tbaa !312
  %63 = load ptr, ptr %54, align 8, !tbaa !8
  %64 = getelementptr inbounds ptr, ptr %63, i64 44
  %65 = load ptr, ptr %64, align 8
  call void %65(ptr noundef nonnull align 8 dereferenceable(2057) %54, i32 noundef %56, i1 noundef zeroext %59, i64 noundef %61, ptr noundef nonnull align 8 dereferenceable(96) %62)
  br label %79

66:                                               ; preds = %41
  %67 = getelementptr inbounds nuw %"class.net::QuicHeadersStream", ptr %12, i32 0, i32 1
  %68 = load ptr, ptr %67, align 8, !tbaa !14
  %69 = getelementptr inbounds nuw %"class.net::QuicHeadersStream", ptr %12, i32 0, i32 2
  %70 = load i32, ptr %69, align 8, !tbaa !134
  %71 = getelementptr inbounds nuw %"class.net::QuicHeadersStream", ptr %12, i32 0, i32 3
  %72 = load i32, ptr %71, align 4, !tbaa !135
  %73 = getelementptr inbounds nuw %"class.net::QuicHeadersStream", ptr %12, i32 0, i32 5
  %74 = load i64, ptr %73, align 8, !tbaa !137
  %75 = load ptr, ptr %4, align 8, !tbaa !312
  %76 = load ptr, ptr %68, align 8, !tbaa !8
  %77 = getelementptr inbounds ptr, ptr %76, i64 47
  %78 = load ptr, ptr %77, align 8
  call void %78(ptr noundef nonnull align 8 dereferenceable(2057) %68, i32 noundef %70, i32 noundef %72, i64 noundef %74, ptr noundef nonnull align 8 dereferenceable(96) %75)
  br label %79

79:                                               ; preds = %66, %52
  %80 = getelementptr inbounds nuw %"class.net::QuicHeadersStream", ptr %12, i32 0, i32 3
  store i32 0, ptr %80, align 4, !tbaa !135
  %81 = getelementptr inbounds nuw %"class.net::QuicHeadersStream", ptr %12, i32 0, i32 2
  store i32 0, ptr %81, align 8, !tbaa !134
  %82 = getelementptr inbounds nuw %"class.net::QuicHeadersStream", ptr %12, i32 0, i32 4
  store i8 0, ptr %82, align 8, !tbaa !136
  %83 = getelementptr inbounds nuw %"class.net::QuicHeadersStream", ptr %12, i32 0, i32 5
  store i64 0, ptr %83, align 8, !tbaa !137
  %84 = getelementptr inbounds nuw %"class.net::QuicHeadersStream", ptr %12, i32 0, i32 6
  store i64 0, ptr %84, align 8, !tbaa !138
  ret void
}