; Function Attrs: mustprogress uwtable
define void @_ZN3net17QuicHeadersStream12OnHeaderListERKNS_14QuicHeaderListE(ptr noundef nonnull align 8 captures(none) dereferenceable(816) initializes((416, 424)) %0, ptr noundef nonnull align 8 dereferenceable(96) %1) local_unnamed_addr #4 align 2 {
  %3 = getelementptr inbounds nuw i8, ptr %0, i64 440
  %.sroa.06.0.copyload = load i64, ptr %3, align 8, !tbaa !372
  %4 = getelementptr inbounds nuw i8, ptr %0, i64 432
  %.sroa.05.0.copyload = load i64, ptr %4, align 8, !tbaa !372
  %5 = icmp slt i64 %.sroa.05.0.copyload, %.sroa.06.0.copyload
  br i1 %5, label %6, label %13

6:                                                ; preds = %2
  %7 = sub nsw i64 %.sroa.06.0.copyload, %.sroa.05.0.copyload
  %8 = getelementptr inbounds nuw i8, ptr %0, i64 384
  %9 = load ptr, ptr %8, align 8, !tbaa !6
  %10 = load ptr, ptr %9, align 8, !tbaa !3
  %11 = getelementptr inbounds nuw i8, ptr %10, i64 392
  %12 = load ptr, ptr %11, align 8
  tail call void %12(ptr noundef nonnull align 8 dereferenceable(2057) %9, i64 0, i64 %7)
  %.sroa.01.0.copyload.i.pre = load i64, ptr %3, align 8, !tbaa !372
  %.sroa.0.0.copyload.i.pre = load i64, ptr %4, align 8, !tbaa !372
  br label %13

13:                                               ; preds = %6, %2
  %.sroa.0.0.copyload.i = phi i64 [ %.sroa.0.0.copyload.i.pre, %6 ], [ %.sroa.05.0.copyload, %2 ]
  %.sroa.01.0.copyload.i = phi i64 [ %.sroa.01.0.copyload.i.pre, %6 ], [ %.sroa.06.0.copyload, %2 ]
  %14 = tail call i64 @llvm.smax.i64(i64 %.sroa.01.0.copyload.i, i64 %.sroa.0.0.copyload.i)
  store i64 %14, ptr %3, align 8, !tbaa !372
  store i64 0, ptr %4, align 8, !tbaa !372
  %15 = getelementptr inbounds nuw i8, ptr %0, i64 396
  %16 = load i32, ptr %15, align 4, !tbaa !380
  %17 = icmp eq i32 %16, 0
  %18 = getelementptr inbounds nuw i8, ptr %0, i64 384
  %19 = load ptr, ptr %18, align 8, !tbaa !6
  %20 = getelementptr inbounds nuw i8, ptr %0, i64 392
  %21 = load i32, ptr %20, align 8, !tbaa !378
  br i1 %17, label %22, label %31

22:                                               ; preds = %13
  %23 = getelementptr inbounds nuw i8, ptr %0, i64 400
  %24 = load i8, ptr %23, align 8, !tbaa !379, !range !343, !noundef !344
  %25 = trunc nuw i8 %24 to i1
  %26 = getelementptr inbounds nuw i8, ptr %0, i64 408
  %27 = load i64, ptr %26, align 8, !tbaa !381
  %28 = load ptr, ptr %19, align 8, !tbaa !3
  %29 = getelementptr inbounds nuw i8, ptr %28, i64 352
  %30 = load ptr, ptr %29, align 8
  tail call void %30(ptr noundef nonnull align 8 dereferenceable(2057) %19, i32 noundef %21, i1 noundef zeroext %25, i64 noundef %27, ptr noundef nonnull align 8 dereferenceable(96) %1)
  br label %37

31:                                               ; preds = %13
  %32 = getelementptr inbounds nuw i8, ptr %0, i64 408
  %33 = load i64, ptr %32, align 8, !tbaa !381
  %34 = load ptr, ptr %19, align 8, !tbaa !3
  %35 = getelementptr inbounds nuw i8, ptr %34, i64 376
  %36 = load ptr, ptr %35, align 8
  tail call void %36(ptr noundef nonnull align 8 dereferenceable(2057) %19, i32 noundef %21, i32 noundef %16, i64 noundef %33, ptr noundef nonnull align 8 dereferenceable(96) %1)
  br label %37

37:                                               ; preds = %31, %22
  %38 = getelementptr inbounds nuw i8, ptr %0, i64 392
  %39 = getelementptr inbounds nuw i8, ptr %0, i64 408
  tail call void @llvm.memset.p0.i64(ptr noundef nonnull align 8 dereferenceable(9) %38, i8 0, i64 9, i1 false)
  tail call void @llvm.memset.p0.i64(ptr noundef nonnull align 8 dereferenceable(16) %39, i8 0, i64 16, i1 false)
  ret void
}